Certificate:
    Data:
        Version: 3 (0x2)
        Serial Number: 1 (0x1)
    Signature Algorithm: sha256WithRSAEncryption
        Issuer: C=US, ST=CA, L=San Jose, CN=cracker.org/emailAddress=bigchoo@gmail.com
        Validity
            Not Before: Apr 26 18:28:50 2015 GMT
            Not After : Jan 20 18:28:50 2018 GMT
        Subject: C=US, ST=CA, L=San Jose, CN=www4.cracker.org.
        Subject Public Key Info:
            Public Key Algorithm: rsaEncryption
                Public-Key: (2048 bit)
                Modulus:
                    00:d4:bf:c5:1d:d1:b6:d7:68:f7:ef:5f:c0:fc:21:
                    0b:91:1d:d5:42:71:a6:ad:f6:29:d7:2b:45:92:1a:
                    ab:2e:0a:27:6b:0f:c8:39:b4:96:4f:cb:85:c5:a9:
                    68:f9:ac:79:f1:90:1d:44:ed:b0:d4:6a:fd:bd:76:
                    0c:80:26:23:d6:f9:bd:b3:77:9b:63:08:a3:ca:67:
                    f8:28:67:f9:8b:f5:88:58:9c:5b:df:69:5f:24:5c:
                    29:a0:dc:5c:c5:34:fb:25:b6:7a:07:f2:ca:6c:19:
                    17:b0:38:ea:8a:91:45:fb:cc:f6:36:53:57:fe:c8:
                    fc:b5:bd:35:23:57:ba:df:04:92:c0:1d:38:b7:e9:
                    89:f8:78:31:03:f8:c7:f3:d4:ec:77:7d:6d:96:03:
                    a8:4e:72:98:8b:e4:7d:40:d0:18:e1:a1:cf:d4:21:
                    3a:e1:5b:36:15:7f:f2:86:fe:14:7c:a7:79:2a:96:
                    2d:97:dd:f5:c5:34:13:0b:48:a6:6c:96:ba:31:4b:
                    f8:5c:30:3f:bb:d1:c3:98:e3:78:15:bb:ea:e4:83:
                    a3:df:75:38:63:c8:bf:4d:e1:d9:01:25:92:2a:0c:
                    1a:9e:b6:d5:97:98:3b:12:60:8b:aa:eb:ab:2d:8f:
                    de:9b:ed:7a:49:9f:9e:8b:a5:09:79:34:ea:39:7b:
                    96:21
                Exponent: 65537 (0x10001)
        X509v3 extensions:
            X509v3 Subject Key Identifier: 
                55:65:B7:9C:21:3B:59:58:52:9A:D7:93:F3:CC:14:38:1A:28:8E:96
            X509v3 Authority Key Identifier: 
                keyid:2F:C8:94:94:A3:FE:8B:0F:A4:80:A9:22:C6:80:A7:35:81:C6:BC:D0

            X509v3 Basic Constraints: 
                CA:FALSE
            X509v3 Key Usage: 
                Digital Signature, Key Encipherment
            X509v3 Subject Alternative Name: 
                DNS:cracker.org, DNS:www4.cracker.org, DNS:mail4.cracker.org, DNS:ftp4.cracker.org
            Netscape Comment: 
                OpenSSL Generated Certificate
    Signature Algorithm: sha256WithRSAEncryption
         6e:89:9e:18:5b:a9:e3:ca:9e:e0:f2:66:2c:05:d2:71:3f:05:
         26:ab:a2:6d:3c:f1:81:f6:0e:6a:d1:38:f8:80:bd:e8:37:6d:
         1f:1d:28:63:44:a8:5b:3f:5c:f1:2a:ae:b9:bc:97:8e:0a:12:
         a0:0b:f9:7c:db:65:7c:12:5e:2a:6e:f0:69:8b:72:11:6b:e6:
         1a:4d:ea:1e:03:72:77:de:6b:bd:c0:53:88:0d:b4:42:c5:4a:
         21:f1:c8:d5:03:c4:b4:15:23:29:81:b1:97:9a:9e:60:72:0b:
         dc:c4:e9:90:fa:65:16:87:d2:16:9b:c4:e5:90:74:25:f4:0a:
         83:cd:6d:c5:67:cc:d4:34:be:93:ca:43:46:5c:25:c3:99:6d:
         18:4d:7a:c3:d0:3a:12:36:40:af:e8:2b:e8:c6:43:43:27:ad:
         db:9e:95:73:e1:18:0a:5e:3d:ca:c1:e9:2b:5f:3a:b0:02:d8:
         6c:72:2c:2f:ad:84:0a:9d:4a:c6:c4:a8:f0:66:76:c3:f2:29:
         19:84:e4:cf:aa:0c:7e:d4:3a:b5:0c:fd:c7:77:74:7e:21:e6:
         f0:ee:b4:ed:47:18:63:88:2a:8f:94:ef:aa:66:d3:53:81:11:
         0d:04:d0:68:37:36:da:70:3d:a8:04:92:af:dd:59:c0:aa:1c:
         25:2d:c3:35:93:cc:bc:03:4b:a0:d5:d1:c8:a4:56:17:e5:98:
         c9:15:86:eb:ca:6e:ff:51:82:af:14:00:20:ab:5c:75:75:0b:
         30:62:79:ed:86:63:4b:dd:6f:e9:02:46:33:45:f9:cb:5e:cb:
         b8:1c:8e:52:8c:61:e9:20:75:1d:99:9b:b9:83:2d:e6:b7:0a:
         89:11:29:80:38:cd:93:6a:e7:96:95:02:d8:55:8b:8e:32:87:
         e2:0d:c2:64:46:dc:4e:81:5a:e0:69:d4:14:53:a6:b8:ed:2c:
         1a:fc:72:ef:2a:fa:ec:5e:45:d5:bd:5a:62:d5:c3:20:fe:08:
         8c:59:e9:9b:5e:68:ad:e3:21:99:1f:9e:d2:bf:8b:e0:2d:b6:
         7a:cb:2e:1d:8a:12:be:65:81:49:bd:ee:e9:1e:2c:3c:bb:55:
         4d:69:0e:77:89:f1:d2:9d:80:ac:bf:fb:f3:67:dc:58:76:3d:
         2a:48:9d:f8:f0:d2:6d:55:e4:09:5d:58:8d:fd:7a:93:c7:14:
         0d:d7:26:4f:00:e0:39:cd:3f:26:71:bc:f6:af:aa:6c:c2:bf:
         36:ae:b6:c6:3a:13:42:65:0e:31:ff:40:6f:17:95:80:45:fa:
         71:ab:5b:3a:13:1a:87:83:27:d9:49:93:17:16:5b:45:54:07:
         2b:a7:f0:97:66:89:fd:5e
-----BEGIN CERTIFICATE-----
MIIFAjCCAuqgAwIBAgIBATANBgkqhkiG9w0BAQsFADBlMQswCQYDVQQGEwJVUzEL
MAkGA1UECAwCQ0ExETAPBgNVBAcMCFNhbiBKb3NlMRQwEgYDVQQDDAtjcmFja2Vy
Lm9yZzEgMB4GCSqGSIb3DQEJARYRYmlnY2hvb0BnbWFpbC5jb20wHhcNMTUwNDI2
MTgyODUwWhcNMTgwMTIwMTgyODUwWjBJMQswCQYDVQQGEwJVUzELMAkGA1UECAwC
Q0ExETAPBgNVBAcMCFNhbiBKb3NlMRowGAYDVQQDDBF3d3c0LmNyYWNrZXIub3Jn
LjCCASIwDQYJKoZIhvcNAQEBBQADggEPADCCAQoCggEBANS/xR3Rttdo9+9fwPwh
C5Ed1UJxpq32KdcrRZIaqy4KJ2sPyDm0lk/LhcWpaPmsefGQHUTtsNRq/b12DIAm
I9b5vbN3m2MIo8pn+Chn+Yv1iFicW99pXyRcKaDcXMU0+yW2egfyymwZF7A46oqR
RfvM9jZTV/7I/LW9NSNXut8EksAdOLfpifh4MQP4x/PU7Hd9bZYDqE5ymIvkfUDQ
GOGhz9QhOuFbNhV/8ob+FHyneSqWLZfd9cU0EwtIpmyWujFL+FwwP7vRw5jjeBW7
6uSDo991OGPIv03h2QElkioMGp621ZeYOxJgi6rrqy2P3pvtekmfnoulCXk06jl7
liECAwEAAaOB2DCB1TAdBgNVHQ4EFgQUVWW3nCE7WVhSmteT88wUOBoojpYwHwYD
VR0jBBgwFoAUL8iUlKP+iw+kgKkixoCnNYHGvNAwCQYDVR0TBAIwADALBgNVHQ8E
BAMCBaAwTQYDVR0RBEYwRIILY3JhY2tlci5vcmeCEHd3dzQuY3JhY2tlci5vcmeC
EW1haWw0LmNyYWNrZXIub3JnghBmdHA0LmNyYWNrZXIub3JnMCwGCWCGSAGG+EIB
DQQfFh1PcGVuU1NMIEdlbmVyYXRlZCBDZXJ0aWZpY2F0ZTANBgkqhkiG9w0BAQsF
AAOCAgEAbomeGFup48qe4PJmLAXScT8FJquibTzxgfYOatE4+IC96DdtHx0oY0So
Wz9c8SquubyXjgoSoAv5fNtlfBJeKm7waYtyEWvmGk3qHgNyd95rvcBTiA20QsVK
IfHI1QPEtBUjKYGxl5qeYHIL3MTpkPplFofSFpvE5ZB0JfQKg81txWfM1DS+k8pD
Rlwlw5ltGE16w9A6EjZAr+gr6MZDQyet256Vc+EYCl49ysHpK186sALYbHIsL62E
Cp1KxsSo8GZ2w/IpGYTkz6oMftQ6tQz9x3d0fiHm8O607UcYY4gqj5TvqmbTU4ER
DQTQaDc22nA9qASSr91ZwKocJS3DNZPMvANLoNXRyKRWF+WYyRWG68pu/1GCrxQA
IKtcdXULMGJ57YZjS91v6QJGM0X5y17LuByOUoxh6SB1HZmbuYMt5rcKiREpgDjN
k2rnlpUC2FWLjjKH4g3CZEbcToFa4GnUFFOmuO0sGvxy7yr67F5F1b1aYtXDIP4I
jFnpm15oreMhmR+e0r+L4C22essuHYoSvmWBSb3u6R4sPLtVTWkOd4nx0p2ArL/7
82fcWHY9Kkid+PDSbVXkCV1Yjf16k8cUDdcmTwDgOc0/JnG89q+qbMK/Nq62xjoT
QmUOMf9AbxeVgEX6catbOhMah4Mn2UmTFxZbRVQHK6fwl2aJ/V4=
-----END CERTIFICATE-----
